; Function Attrs: mustprogress uwtable
define noundef zeroext i1 @_ZN6google8protobuf4util18MessageDifferencer6EqualsERKNS0_7MessageES5_(ptr noundef nonnull align 8 dereferenceable(16) %message1, ptr noundef nonnull align 8 dereferenceable(16) %message2) local_unnamed_addr #3 align 2 personality ptr @__gxx_personality_v0 {
entry:
  %differencer = alloca %"class.google::protobuf::util::MessageDifferencer", align 8
  call void @_ZN6google8protobuf4util18MessageDifferencerC1Ev(ptr noundef nonnull align 8 dereferenceable(432) %differencer)
  %call = invoke noundef zeroext i1 @_ZN6google8protobuf4util18MessageDifferencer7CompareERKNS0_7MessageES5_(ptr noundef nonnull align 8 dereferenceable(432) %differencer, ptr noundef nonnull align 8 dereferenceable(16) %message1, ptr noundef nonnull align 8 dereferenceable(16) %message2)
          to label %invoke.cont unwind label %lpad

invoke.cont:                                      ; preds = %entry
  call void @_ZN6google8protobuf4util18MessageDifferencerD1Ev(ptr noundef nonnull align 8 dereferenceable(432) %differencer) #34
  ret i1 %call

lpad:                                             ; preds = %entry
  %0 = landingpad { ptr, i32 }
          cleanup
  call void @_ZN6google8protobuf4util18MessageDifferencerD1Ev(ptr noundef nonnull align 8 dereferenceable(432) %differencer) #34
  resume { ptr, i32 } %0
}